target datalayout = "e-m:e-p270:32:32-p271:32:32-p272:64:64-i64:64-i128:128-f80:128-n8:16:32:64-S128"
target triple = "x86_64-pc-linux-gnu"

%struct.H5FA_class_t = type { i32, ptr, i64, ptr, ptr, ptr, ptr, ptr, ptr, ptr, ptr }

@stderr = external global ptr, align 8
@H5FA_CLS_TEST = external constant [1 x %struct.H5FA_class_t], align 16
@H5FA_CLS_CHUNK = external constant [1 x %struct.H5FA_class_t], align 16
@H5FA_CLS_FILT_CHUNK = external constant [1 x %struct.H5FA_class_t], align 16
@.str.96 = private unnamed_addr constant [30 x i8] c"Unknown fixed array class %u\0A\00", align 1

; Function Attrs: nounwind uwtable
define internal ptr @get_H5FA_class(ptr noundef %0) #0 {
  %2 = alloca ptr, align 8
  %3 = alloca i32, align 4
  %4 = alloca ptr, align 8
  store ptr %0, ptr %2, align 8, !tbaa !18
  call void @llvm.lifetime.start.p0(i64 4, ptr %3) #7
  %5 = load ptr, ptr %2, align 8, !tbaa !18
  %6 = getelementptr inbounds i8, ptr %5, i64 5
  %7 = load i8, ptr %6, align 1, !tbaa !26
  %8 = zext i8 %7 to i32
  store i32 %8, ptr %3, align 4, !tbaa !4
  call void @llvm.lifetime.start.p0(i64 8, ptr %4) #7
  store ptr null, ptr %4, align 8, !tbaa !33
  %9 = load i32, ptr %3, align 4, !tbaa !4
  switch i32 %9, label %14 [
    i32 2, label %10
    i32 0, label %11
    i32 1, label %12
    i32 3, label %13
  ]

10:                                               ; preds = %1
  store ptr @H5FA_CLS_TEST, ptr %4, align 8, !tbaa !33
  br label %18

11:                                               ; preds = %1
  store ptr @H5FA_CLS_CHUNK, ptr %4, align 8, !tbaa !33
  br label %18

12:                                               ; preds = %1
  store ptr @H5FA_CLS_FILT_CHUNK, ptr %4, align 8, !tbaa !33
  br label %18

13:                                               ; preds = %1
  br label %14

14:                                               ; preds = %1, %13
  %15 = load ptr, ptr @stderr, align 8, !tbaa !16
  %16 = load i32, ptr %3, align 4, !tbaa !4
  %17 = call i32 (ptr, ptr, ...) @fprintf(ptr noundef %15, ptr noundef @.str.96, i32 noundef %16) #7
  br label %18

18:                                               ; preds = %14, %12, %11, %10
  %19 = load ptr, ptr %4, align 8, !tbaa !33
  call void @llvm.lifetime.end.p0(i64 8, ptr %4) #7
  call void @llvm.lifetime.end.p0(i64 4, ptr %3) #7
  ret ptr %19
}